; Function Attrs: mustprogress uwtable
define hidden void @_ZN4lean19get_annotation_kindERKNS_4exprE(ptr dead_on_unwind noalias writable writeonly sret(%"class.lean::name") align 8 captures(none) %0, ptr noundef nonnull readonly align 8 captures(none) dereferenceable(8) %1) local_unnamed_addr #0 personality ptr @__gxx_personality_v0 {
  %3 = alloca %"class.lean::optional", align 8
  %4 = alloca %"class.lean::optional.4", align 8
  call void @llvm.lifetime.start.p0(i64 16, ptr nonnull %3) #16
  call void @_ZN4lean13is_annotationERKNS_4exprE(ptr dead_on_unwind nonnull writable sret(%"class.lean::optional") align 8 %3, ptr noundef nonnull align 8 dereferenceable(8) %1)
  call void @llvm.lifetime.start.p0(i64 16, ptr nonnull %4) #16
  %5 = getelementptr inbounds nuw i8, ptr %3, i64 8
  %6 = load ptr, ptr %5, align 8, !tbaa !3
  %7 = getelementptr inbounds nuw i8, ptr %6, i64 8
  %8 = load ptr, ptr @_ZN4leanL12g_annotationE, align 8, !tbaa !8
  invoke void @_ZN4lean8get_nameERKNS_8list_refINS_8pair_refINS_4nameENS_10data_valueEEEEERKS2_(ptr dead_on_unwind nonnull writable sret(%"class.lean::optional.4") align 8 %4, ptr noundef nonnull align 8 dereferenceable(8) %7, ptr noundef nonnull align 8 dereferenceable(8) %8)
          to label %9 unwind label %50

9:                                                ; preds = %2
  %10 = getelementptr inbounds nuw i8, ptr %4, i64 8
  %11 = load ptr, ptr %10, align 8, !tbaa !3
  store ptr %11, ptr %0, align 8, !tbaa !3
  %12 = ptrtoint ptr %11 to i64
  %13 = and i64 %12, 1
  %.not.i.i.i = icmp eq i64 %13, 0
  br i1 %.not.i.i.i, label %14, label %_ZN4lean4nameC2ERKS0_.exit

14:                                               ; preds = %9
  %.val.i.i.i.i = load i32, ptr %11, align 4, !tbaa !10
  %15 = icmp sgt i32 %.val.i.i.i.i, 0
  br i1 %15, label %16, label %18, !prof !13

16:                                               ; preds = %14
  %17 = add nuw nsw i32 %.val.i.i.i.i, 1
  store i32 %17, ptr %11, align 4, !tbaa !10
  br label %_ZN4lean4nameC2ERKS0_.exit

18:                                               ; preds = %14
  %.not.i.i.i.i = icmp eq i32 %.val.i.i.i.i, 0
  br i1 %.not.i.i.i.i, label %_ZN4lean4nameC2ERKS0_.exit, label %19

19:                                               ; preds = %18
  invoke void @lean_inc_ref_cold(ptr noundef nonnull %11)
          to label %_ZN4lean4nameC2ERKS0_.exit unwind label %52

_ZN4lean4nameC2ERKS0_.exit:                       ; preds = %18, %16, %9, %19
  %20 = load i8, ptr %4, align 8, !tbaa !26, !range !29, !noundef !30
  %21 = trunc nuw i8 %20 to i1
  br i1 %21, label %22, label %_ZN4lean8optionalINS_4nameEED2Ev.exit

22:                                               ; preds = %_ZN4lean4nameC2ERKS0_.exit
  %23 = load ptr, ptr %10, align 8, !tbaa !3
  %24 = ptrtoint ptr %23 to i64
  %25 = and i64 %24, 1
  %.not.i.i.i4 = icmp eq i64 %25, 0
  br i1 %.not.i.i.i4, label %26, label %_ZN4lean8optionalINS_4nameEED2Ev.exit

26:                                               ; preds = %22
  %27 = load i32, ptr %23, align 4, !tbaa !10
  %28 = icmp sgt i32 %27, 1
  br i1 %28, label %29, label %31, !prof !13

29:                                               ; preds = %26
  %30 = add nsw i32 %27, -1
  store i32 %30, ptr %23, align 4, !tbaa !10
  br label %_ZN4lean8optionalINS_4nameEED2Ev.exit

31:                                               ; preds = %26
  %.not.i.i.i.i5 = icmp eq i32 %27, 0
  br i1 %.not.i.i.i.i5, label %_ZN4lean8optionalINS_4nameEED2Ev.exit, label %32

32:                                               ; preds = %31
  invoke void @lean_dec_ref_cold(ptr noundef nonnull %23)
          to label %_ZN4lean8optionalINS_4nameEED2Ev.exit unwind label %33

33:                                               ; preds = %32
  %34 = landingpad { ptr, i32 }
          catch ptr null
  %35 = extractvalue { ptr, i32 } %34, 0
  call void @__clang_call_terminate(ptr %35) #17
  unreachable

_ZN4lean8optionalINS_4nameEED2Ev.exit:            ; preds = %_ZN4lean4nameC2ERKS0_.exit, %22, %29, %31, %32
  call void @llvm.lifetime.end.p0(i64 16, ptr nonnull %4) #16
  %36 = load i8, ptr %3, align 8, !tbaa !34, !range !29, !noundef !30
  %37 = trunc nuw i8 %36 to i1
  %38 = ptrtoint ptr %6 to i64
  %39 = and i64 %38, 1
  %.not.i.i.i6 = icmp eq i64 %39, 0
  %or.cond = and i1 %.not.i.i.i6, %37
  br i1 %or.cond, label %40, label %_ZN4lean8optionalINS_4exprEED2Ev.exit

40:                                               ; preds = %_ZN4lean8optionalINS_4nameEED2Ev.exit
  %41 = load i32, ptr %6, align 4, !tbaa !10
  %42 = icmp sgt i32 %41, 1
  br i1 %42, label %43, label %45, !prof !13

43:                                               ; preds = %40
  %44 = add nsw i32 %41, -1
  store i32 %44, ptr %6, align 4, !tbaa !10
  br label %_ZN4lean8optionalINS_4exprEED2Ev.exit

45:                                               ; preds = %40
  %.not.i.i.i.i7 = icmp eq i32 %41, 0
  br i1 %.not.i.i.i.i7, label %_ZN4lean8optionalINS_4exprEED2Ev.exit, label %46

46:                                               ; preds = %45
  invoke void @lean_dec_ref_cold(ptr noundef nonnull %6)
          to label %_ZN4lean8optionalINS_4exprEED2Ev.exit unwind label %47

47:                                               ; preds = %46
  %48 = landingpad { ptr, i32 }
          catch ptr null
  %49 = extractvalue { ptr, i32 } %48, 0
  call void @__clang_call_terminate(ptr %49) #17
  unreachable

_ZN4lean8optionalINS_4exprEED2Ev.exit:            ; preds = %_ZN4lean8optionalINS_4nameEED2Ev.exit, %43, %45, %46
  call void @llvm.lifetime.end.p0(i64 16, ptr nonnull %3) #16
  ret void

50:                                               ; preds = %2
  %51 = landingpad { ptr, i32 }
          cleanup
  br label %54

52:                                               ; preds = %19
  %53 = landingpad { ptr, i32 }
          cleanup
  call void @_ZN4lean8optionalINS_4nameEED2Ev(ptr noundef nonnull align 8 dereferenceable(16) %4) #16
  br label %54

54:                                               ; preds = %52, %50
  %.pn = phi { ptr, i32 } [ %53, %52 ], [ %51, %50 ]
  call void @llvm.lifetime.end.p0(i64 16, ptr nonnull %4) #16
  call void @_ZN4lean8optionalINS_4exprEED2Ev(ptr noundef nonnull align 8 dereferenceable(16) %3) #16
  call void @llvm.lifetime.end.p0(i64 16, ptr nonnull %3) #16
  resume { ptr, i32 } %.pn
}